Certificate:
    Data:
        Version: 3 (0x2)
        Serial Number: 1 (0x1)
        Signature Algorithm: sha1WithRSAEncryption
        Issuer: C=AU, ST=Some-State, L=Palo Alto, O=Internet Widgits Pty Ltd, CN=Natasha
        Validity
            Not Before: Oct 25 00:31:02 2007 GMT
            Not After : Oct 24 00:31:02 2008 GMT
        Subject: C=AU, ST=Some-State, O=Internet Widgits Pty Ltd, CN=Natasha
        Subject Public Key Info:
            Public Key Algorithm: rsaEncryption
            RSA Public Key: (2048 bit)
                Modulus (2048 bit):
                    00:ca:a6:f1:81:96:85:d4:c0:60:11:e3:ea:7b:41:
                    2d:d3:c2:2e:9e:2f:42:ae:44:57:3e:a2:a8:41:77:
                    6d:fb:b2:48:56:d0:0e:af:38:e2:a5:d4:80:39:5e:
                    79:17:b9:28:fc:cf:10:94:76:b4:23:78:19:b2:66:
                    e4:51:af:71:9a:12:4c:31:4e:3a:89:1d:39:44:80:
                    19:d0:b3:07:5f:19:bb:38:c8:31:90:e1:07:43:c5:
                    94:0b:35:9b:22:56:eb:04:58:21:d2:bb:01:c5:b9:
                    1e:2a:41:d4:0b:92:2e:19:7d:0e:ed:38:2e:80:21:
                    83:04:97:cb:54:3c:52:54:ce:cc:28:52:b4:7e:0f:
                    3a:af:b1:a8:28:31:26:ea:82:07:f7:23:35:d7:bf:
                    af:7c:70:0d:30:ea:cb:c5:37:ad:a3:e1:35:cc:f8:
                    16:f8:91:da:3c:ab:36:2a:d5:ed:31:02:dc:d4:e6:
                    a7:61:65:bb:2d:d3:73:14:a1:5e:f1:5d:cd:f4:87:
                    ff:08:e0:81:bb:a2:97:0f:93:09:95:87:ed:b8:12:
                    a6:87:62:97:ff:65:e5:31:1e:63:22:95:0d:7f:c2:
                    57:f7:e1:5f:a9:c6:bb:34:3b:92:98:65:87:3b:61:
                    c1:8a:1f:28:b4:05:1b:d0:51:e2:b0:22:de:f7:32:
                    78:1f
                Exponent: 65537 (0x10001)
        X509v3 extensions:
            X509v3 Basic Constraints: 
                CA:FALSE
            Netscape Comment: 
                OpenSSL Generated Certificate
            X509v3 Subject Key Identifier: 
                D2:2C:28:79:00:5A:37:F6:84:20:64:72:4E:19:E5:6E:A3:02:B1:B8
            X509v3 Authority Key Identifier: 
                keyid:12:EA:88:97:E7:2C:D0:C3:CE:B9:E7:09:95:9A:88:32:11:95:B7:D5

    Signature Algorithm: sha1WithRSAEncryption
        11:30:fc:87:14:2e:7c:c2:10:82:80:f8:bc:be:16:e0:69:35:
        84:e7:36:65:2b:a8:5a:64:50:8e:95:5e:bf:d8:36:2c:3e:94:
        ce:1b:33:aa:02:f8:12:88:9c:5c:e6:55:27:01:86:55:21:e0:
        c1:dd:18:96:db:5a:4d:1c:34:0c:62:81:88:8a:8d:d9:c2:e7:
        86:84:97:41:24:80:11:5d:c2:cf:7b:75:8d:ae:46:8a:6b:7e:
        13:c0:7f:2b:5f:02:21:c8:f6:54:86:08:09:57:27:91:31:26:
        ff:26:96:17:2e:f4:c6:06:bd:f7:eb:bd:e4:86:1f:97:56:ff:
        c5:f0:4a:71:95:95:a2:8f:51:d1:13:7f:10:11:c8:be:ae:aa:
        2d:77:73:5d:4b:e3:9e:b1:e1:36:3e:fa:81:ba:e1:bc:5d:79:
        69:ab:03:fb:1d:82:c6:34:e4:ab:75:db:83:83:2a:a3:f7:75:
        99:d8:28:f8:6d:bf:4b:e6:b2:b6:65:8f:46:a3:b8:35:d8:01:
        f6:92:b8:3d:5e:58:6d:de:58:4d:2c:51:73:8b:8c:bd:7b:15:
        f8:a6:a1:d2:65:4a:db:aa:e6:ee:47:6d:82:0c:87:3b:f9:c6:
        65:fb:f6:6a:86:70:48:ba:d7:3a:19:0c:10:cd:04:2f:41:1c:
        29:3d:05:40
-----BEGIN CERTIFICATE-----
MIIDuDCCAqCgAwIBAgIBATANBgkqhkiG9w0BAQUFADBrMQswCQYDVQQGEwJBVTET
MBEGA1UECBMKU29tZS1TdGF0ZTESMBAGA1UEBxMJUGFsbyBBbHRvMSEwHwYDVQQK
ExhJbnRlcm5ldCBXaWRnaXRzIFB0eSBMdGQxEDAOBgNVBAMTB05hdGFzaGEwHhcN
MDcxMDI1MDAzMTAyWhcNMDgxMDI0MDAzMTAyWjBXMQswCQYDVQQGEwJBVTETMBEG
A1UECBMKU29tZS1TdGF0ZTEhMB8GA1UEChMYSW50ZXJuZXQgV2lkZ2l0cyBQdHkg
THRkMRAwDgYDVQQDEwdOYXRhc2hhMIIBIjANBgkqhkiG9w0BAQEFAAOCAQ8AMIIB
CgKCAQEAyqbxgZaF1MBgEePqe0Et08Iuni9CrkRXPqKoQXdt+7JIVtAOrzjipdSA
OV55F7ko/M8QlHa0I3gZsmbkUa9xmhJMMU46iR05RIAZ0LMHXxm7OMgxkOEHQ8WU
CzWbIlbrBFgh0rsBxbkeKkHUC5IuGX0O7TgugCGDBJfLVDxSVM7MKFK0fg86r7Go
KDEm6oIH9yM117+vfHANMOrLxTeto+E1zPgW+JHaPKs2KtXtMQLc1OanYWW7LdNz
FKFe8V3N9If/COCBu6KXD5MJlYftuBKmh2KX/2XlMR5jIpUNf8JX9+Ffqca7NDuS
mGWHO2HBih8otAUb0FHisCLe9zJ4HwIDAQABo3sweTAJBgNVHRMEAjAAMCwGCWCG
SAGG+EIBDQQfFh1PcGVuU1NMIEdlbmVyYXRlZCBDZXJ0aWZpY2F0ZTAdBgNVHQ4E
FgQU0iwoeQBaN/aEIGRyThnlbqMCsbgwHwYDVR0jBBgwFoAUEuqIl+cs0MPOuecJ
lZqIMhGVt9UwDQYJKoZIhvcNAQEFBQADggEBABEw/IcULnzCEIKA+Ly+FuBpNYTn
NmUrqFpkUI6VXr/YNiw+lM4bM6oC+BKInFzmVScBhlUh4MHdGJbbWk0cNAxigYiK
jdnC54aEl0EkgBFdws97dY2uRoprfhPAfytfAiHI9lSGCAlXJ5ExJv8mlhcu9MYG
vffrveSGH5dW/8XwSnGVlaKPUdETfxARyL6uqi13c11L456x4TY++oG64bxdeWmr
A/sdgsY05Kt124ODKqP3dZnYKPhtv0vmsrZlj0ajuDXYAfaSuD1eWG3eWE0sUXOL
jL17FfimodJlStuq5u5HbYIMhzv5xmX79mqGcEi61zoZDBDNBC9BHCk9BUA=
-----END CERTIFICATE-----
